target datalayout = "e-m:e-p270:32:32-p271:32:32-p272:64:64-i64:64-i128:128-f80:128-n8:16:32:64-S128"
target triple = "x86_64-pc-linux-gnu"

; Function Attrs: nounwind uwtable
define ptr @Extra_UtilStrsav(ptr noundef %0) #0 {
  %2 = alloca ptr, align 8
  %3 = alloca ptr, align 8
  store ptr %0, ptr %3, align 8
  %4 = load ptr, ptr %3, align 8
  %5 = icmp eq ptr %4, null
  br i1 %5, label %6, label %7

6:                                                ; preds = %1
  store ptr null, ptr %2, align 8
  br label %15

7:                                                ; preds = %1
  %8 = load ptr, ptr %3, align 8
  %9 = call i64 @strlen(ptr noundef %8) #6
  %10 = add i64 %9, 1
  %11 = mul i64 1, %10
  %12 = call noalias ptr @malloc(i64 noundef %11) #8
  %13 = load ptr, ptr %3, align 8
  %14 = call ptr @strcpy(ptr noundef %12, ptr noundef %13) #7
  store ptr %14, ptr %2, align 8
  br label %15

15:                                               ; preds = %7, %6
  %16 = load ptr, ptr %2, align 8
  ret ptr %16
}

; Function Attrs: nounwind uwtable
define ptr @Extra_UtilTildeExpand(ptr noundef %0) #0 {
  %2 = alloca ptr, align 8
  store ptr %0, ptr %2, align 8
  %3 = load ptr, ptr %2, align 8
  %4 = call ptr @Extra_UtilStrsav(ptr noundef %3)
  ret ptr %4
}